target datalayout = "e-m:e-p270:32:32-p271:32:32-p272:64:64-i64:64-i128:128-f80:128-n8:16:32:64-S128"
target triple = "x86_64-pc-linux-gnu"

%struct.jpeg_compress_struct = type { ptr, ptr, ptr, ptr, i32, i32, ptr, i32, i32, i32, i32, double, i32, i32, i32, ptr, [4 x ptr], [4 x ptr], [4 x ptr], [16 x i8], [16 x i8], [16 x i8], i32, ptr, i32, i32, i32, i32, i32, i32, i32, i32, i32, i8, i8, i8, i16, i16, i32, i32, i32, i32, i32, i32, i32, [4 x ptr], i32, i32, i32, [10 x i32], i32, i32, i32, i32, ptr, ptr, ptr, ptr, ptr, ptr, ptr, ptr, ptr, ptr, i32 }
%struct.jpeg_error_mgr = type { ptr, ptr, ptr, ptr, ptr, i32, %union.anon, i32, i64, ptr, i32, ptr, i32, i32 }
%union.anon = type { [8 x i32], [48 x i8] }
%struct.JQUANT_TBL = type { [64 x i16], i32 }

; Function Attrs: nounwind uwtable
define hidden void @jAddQuantTable(ptr noundef %0, i32 noundef %1, ptr noundef %2, i32 noundef %3, i32 noundef %4) #0 {
  %6 = alloca ptr, align 8
  %7 = alloca i32, align 4
  %8 = alloca ptr, align 8
  %9 = alloca i32, align 4
  %10 = alloca i32, align 4
  %11 = alloca ptr, align 8
  %12 = alloca i32, align 4
  %13 = alloca i64, align 8
  store ptr %0, ptr %6, align 8
  store i32 %1, ptr %7, align 4
  store ptr %2, ptr %8, align 8
  store i32 %3, ptr %9, align 4
  store i32 %4, ptr %10, align 4
  %14 = load ptr, ptr %6, align 8
  %15 = getelementptr inbounds %struct.jpeg_compress_struct, ptr %14, i32 0, i32 5
  %16 = load i32, ptr %15, align 4
  %17 = icmp ne i32 %16, 100
  br i1 %17, label %18, label %37

18:                                               ; preds = %5
  %19 = load ptr, ptr %6, align 8
  %20 = getelementptr inbounds %struct.jpeg_compress_struct, ptr %19, i32 0, i32 0
  %21 = load ptr, ptr %20, align 8
  %22 = getelementptr inbounds %struct.jpeg_error_mgr, ptr %21, i32 0, i32 5
  store i32 20, ptr %22, align 8
  %23 = load ptr, ptr %6, align 8
  %24 = getelementptr inbounds %struct.jpeg_compress_struct, ptr %23, i32 0, i32 5
  %25 = load i32, ptr %24, align 4
  %26 = load ptr, ptr %6, align 8
  %27 = getelementptr inbounds %struct.jpeg_compress_struct, ptr %26, i32 0, i32 0
  %28 = load ptr, ptr %27, align 8
  %29 = getelementptr inbounds %struct.jpeg_error_mgr, ptr %28, i32 0, i32 6
  %30 = getelementptr inbounds [8 x i32], ptr %29, i64 0, i64 0
  store i32 %25, ptr %30, align 4
  %31 = load ptr, ptr %6, align 8
  %32 = getelementptr inbounds %struct.jpeg_compress_struct, ptr %31, i32 0, i32 0
  %33 = load ptr, ptr %32, align 8
  %34 = getelementptr inbounds %struct.jpeg_error_mgr, ptr %33, i32 0, i32 0
  %35 = load ptr, ptr %34, align 8
  %36 = load ptr, ptr %6, align 8
  call void %35(ptr noundef %36)
  br label %37

37:                                               ; preds = %18, %5
  %38 = load i32, ptr %7, align 4
  %39 = icmp slt i32 %38, 0
  br i1 %39, label %43, label %40

40:                                               ; preds = %37
  %41 = load i32, ptr %7, align 4
  %42 = icmp sge i32 %41, 4
  br i1 %42, label %43, label %60

43:                                               ; preds = %40, %37
  %44 = load ptr, ptr %6, align 8
  %45 = getelementptr inbounds %struct.jpeg_compress_struct, ptr %44, i32 0, i32 0
  %46 = load ptr, ptr %45, align 8
  %47 = getelementptr inbounds %struct.jpeg_error_mgr, ptr %46, i32 0, i32 5
  store i32 31, ptr %47, align 8
  %48 = load i32, ptr %7, align 4
  %49 = load ptr, ptr %6, align 8
  %50 = getelementptr inbounds %struct.jpeg_compress_struct, ptr %49, i32 0, i32 0
  %51 = load ptr, ptr %50, align 8
  %52 = getelementptr inbounds %struct.jpeg_error_mgr, ptr %51, i32 0, i32 6
  %53 = getelementptr inbounds [8 x i32], ptr %52, i64 0, i64 0
  store i32 %48, ptr %53, align 4
  %54 = load ptr, ptr %6, align 8
  %55 = getelementptr inbounds %struct.jpeg_compress_struct, ptr %54, i32 0, i32 0
  %56 = load ptr, ptr %55, align 8
  %57 = getelementptr inbounds %struct.jpeg_error_mgr, ptr %56, i32 0, i32 0
  %58 = load ptr, ptr %57, align 8
  %59 = load ptr, ptr %6, align 8
  call void %58(ptr noundef %59)
  br label %60

60:                                               ; preds = %43, %40
  %61 = load ptr, ptr %6, align 8
  %62 = getelementptr inbounds %struct.jpeg_compress_struct, ptr %61, i32 0, i32 16
  %63 = load i32, ptr %7, align 4
  %64 = sext i32 %63 to i64
  %65 = getelementptr inbounds [4 x ptr], ptr %62, i64 0, i64 %64
  store ptr %65, ptr %11, align 8
  %66 = load ptr, ptr %11, align 8
  %67 = load ptr, ptr %66, align 8
  %68 = icmp eq ptr %67, null
  br i1 %68, label %69, label %73

69:                                               ; preds = %60
  %70 = load ptr, ptr %6, align 8
  %71 = call ptr @jAlcQTable(ptr noundef %70)
  %72 = load ptr, ptr %11, align 8
  store ptr %71, ptr %72, align 8
  br label %73

73:                                               ; preds = %69, %60
  store i32 0, ptr %12, align 4
  br label %74

74:                                               ; preds = %112, %73
  %75 = load i32, ptr %12, align 4
  %76 = icmp slt i32 %75, 64
  br i1 %76, label %77, label %115

77:                                               ; preds = %74
  %78 = load ptr, ptr %8, align 8
  %79 = load i32, ptr %12, align 4
  %80 = sext i32 %79 to i64
  %81 = getelementptr inbounds i32, ptr %78, i64 %80
  %82 = load i32, ptr %81, align 4
  %83 = zext i32 %82 to i64
  %84 = load i32, ptr %9, align 4
  %85 = sext i32 %84 to i64
  %86 = mul nsw i64 %83, %85
  %87 = add nsw i64 %86, 50
  %88 = sdiv i64 %87, 100
  store i64 %88, ptr %13, align 8
  %89 = load i64, ptr %13, align 8
  %90 = icmp sle i64 %89, 0
  br i1 %90, label %91, label %92

91:                                               ; preds = %77
  store i64 1, ptr %13, align 8
  br label %92

92:                                               ; preds = %91, %77
  %93 = load i64, ptr %13, align 8
  %94 = icmp sgt i64 %93, 32767
  br i1 %94, label %95, label %96

95:                                               ; preds = %92
  store i64 32767, ptr %13, align 8
  br label %96

96:                                               ; preds = %95, %92
  %97 = load i32, ptr %10, align 4
  %98 = icmp ne i32 %97, 0
  br i1 %98, label %99, label %103

99:                                               ; preds = %96
  %100 = load i64, ptr %13, align 8
  %101 = icmp sgt i64 %100, 255
  br i1 %101, label %102, label %103

102:                                              ; preds = %99
  store i64 255, ptr %13, align 8
  br label %103

103:                                              ; preds = %102, %99, %96
  %104 = load i64, ptr %13, align 8
  %105 = trunc i64 %104 to i16
  %106 = load ptr, ptr %11, align 8
  %107 = load ptr, ptr %106, align 8
  %108 = getelementptr inbounds %struct.JQUANT_TBL, ptr %107, i32 0, i32 0
  %109 = load i32, ptr %12, align 4
  %110 = sext i32 %109 to i64
  %111 = getelementptr inbounds [64 x i16], ptr %108, i64 0, i64 %110
  store i16 %105, ptr %111, align 2
  br label %112

112:                                              ; preds = %103
  %113 = load i32, ptr %12, align 4
  %114 = add nsw i32 %113, 1
  store i32 %114, ptr %12, align 4
  br label %74, !llvm.loop !6

115:                                              ; preds = %74
  %116 = load ptr, ptr %11, align 8
  %117 = load ptr, ptr %116, align 8
  %118 = getelementptr inbounds %struct.JQUANT_TBL, ptr %117, i32 0, i32 1
  store i32 0, ptr %118, align 4
  ret void
}

; Function Attrs: nounwind uwtable
define hidden void @jSetLQuality(ptr noundef %0, i32 noundef %1, i32 noundef %2) #0 {
  %4 = alloca ptr, align 8
  %5 = alloca i32, align 4
  %6 = alloca i32, align 4
  store ptr %0, ptr %4, align 8
  store i32 %1, ptr %5, align 4
  store i32 %2, ptr %6, align 4
  %7 = load ptr, ptr %4, align 8
  %8 = load i32, ptr %5, align 4
  %9 = load i32, ptr %6, align 4
  call void @jAddQuantTable(ptr noundef %7, i32 noundef 0, ptr noundef @jSetLQuality.std_luminance_quant_tbl, i32 noundef %8, i32 noundef %9)
  %10 = load ptr, ptr %4, align 8
  %11 = load i32, ptr %5, align 4
  %12 = load i32, ptr %6, align 4
  call void @jAddQuantTable(ptr noundef %10, i32 noundef 1, ptr noundef @jSetLQuality.std_chrominance_quant_tbl, i32 noundef %11, i32 noundef %12)
  ret void
}