; Function Attrs: nounwind uwtable
define hidden void @jSetLQuality(ptr noundef %0, i32 noundef %1, i32 noundef %2) local_unnamed_addr #0 {
  %4 = getelementptr inbounds i8, ptr %0, i64 36
  %5 = load i32, ptr %4, align 4
  %.not.i = icmp eq i32 %5, 100
  br i1 %.not.i, label %14, label %6

6:                                                ; preds = %3
  %7 = load ptr, ptr %0, align 8
  %8 = getelementptr inbounds i8, ptr %7, i64 40
  store i32 20, ptr %8, align 8
  %9 = load i32, ptr %4, align 4
  %10 = load ptr, ptr %0, align 8
  %11 = getelementptr inbounds i8, ptr %10, i64 44
  store i32 %9, ptr %11, align 4
  %12 = load ptr, ptr %0, align 8
  %13 = load ptr, ptr %12, align 8
  tail call void %13(ptr noundef nonnull %0) #6
  br label %14

14:                                               ; preds = %6, %3
  %15 = getelementptr inbounds i8, ptr %0, i64 96
  %16 = load ptr, ptr %15, align 8
  %17 = icmp eq ptr %16, null
  br i1 %17, label %18, label %20

18:                                               ; preds = %14
  %19 = tail call ptr @jAlcQTable(ptr noundef nonnull %0) #6
  store ptr %19, ptr %15, align 8
  br label %20

20:                                               ; preds = %18, %14
  %21 = sext i32 %1 to i64
  %.not38.i = icmp eq i32 %2, 0
  br i1 %.not38.i, label %.split.us.i, label %.split.i

.split.us.i:                                      ; preds = %20, %.split.us.i
  %indvars.iv41.i = phi i64 [ %indvars.iv.next42.i, %.split.us.i ], [ 0, %20 ]
  %22 = getelementptr inbounds i32, ptr @jSetLQuality.std_luminance_quant_tbl, i64 %indvars.iv41.i
  %23 = load i32, ptr %22, align 4
  %24 = zext i32 %23 to i64
  %25 = mul nsw i64 %24, %21
  %26 = add nsw i64 %25, 50
  %27 = sdiv i64 %26, 100
  %spec.store.select.us.i = tail call i64 @llvm.smax.i64(i64 %27, i64 1)
  %spec.store.select4.us.i = tail call i64 @llvm.umin.i64(i64 %spec.store.select.us.i, i64 32767)
  %28 = trunc nuw nsw i64 %spec.store.select4.us.i to i16
  %29 = load ptr, ptr %15, align 8
  %30 = getelementptr inbounds [64 x i16], ptr %29, i64 0, i64 %indvars.iv41.i
  store i16 %28, ptr %30, align 2
  %indvars.iv.next42.i = add nuw nsw i64 %indvars.iv41.i, 1
  %exitcond44.not.i = icmp eq i64 %indvars.iv.next42.i, 64
  br i1 %exitcond44.not.i, label %jAddQuantTable.exit, label %.split.us.i, !llvm.loop !6

.split.i:                                         ; preds = %20, %.split.i
  %indvars.iv.i = phi i64 [ %indvars.iv.next.i, %.split.i ], [ 0, %20 ]
  %31 = getelementptr inbounds i32, ptr @jSetLQuality.std_luminance_quant_tbl, i64 %indvars.iv.i
  %32 = load i32, ptr %31, align 4
  %33 = zext i32 %32 to i64
  %34 = mul nsw i64 %33, %21
  %35 = add nsw i64 %34, 50
  %36 = sdiv i64 %35, 100
  %spec.store.select.i = tail call i64 @llvm.smax.i64(i64 %36, i64 1)
  %spec.store.select4.i = tail call i64 @llvm.umin.i64(i64 %spec.store.select.i, i64 32767)
  %37 = icmp sgt i64 %34, 25549
  %38 = trunc nuw nsw i64 %spec.store.select4.i to i16
  %spec.select.i = select i1 %37, i16 255, i16 %38
  %39 = load ptr, ptr %15, align 8
  %40 = getelementptr inbounds [64 x i16], ptr %39, i64 0, i64 %indvars.iv.i
  store i16 %spec.select.i, ptr %40, align 2
  %indvars.iv.next.i = add nuw nsw i64 %indvars.iv.i, 1
  %exitcond.not.i = icmp eq i64 %indvars.iv.next.i, 64
  br i1 %exitcond.not.i, label %jAddQuantTable.exit, label %.split.i, !llvm.loop !6

jAddQuantTable.exit:                              ; preds = %.split.i, %.split.us.i
  %41 = load ptr, ptr %15, align 8
  %42 = getelementptr inbounds i8, ptr %41, i64 128
  store i32 0, ptr %42, align 4
  %43 = load i32, ptr %4, align 4
  %.not.i5 = icmp eq i32 %43, 100
  br i1 %.not.i5, label %52, label %44

44:                                               ; preds = %jAddQuantTable.exit
  %45 = load ptr, ptr %0, align 8
  %46 = getelementptr inbounds i8, ptr %45, i64 40
  store i32 20, ptr %46, align 8
  %47 = load i32, ptr %4, align 4
  %48 = load ptr, ptr %0, align 8
  %49 = getelementptr inbounds i8, ptr %48, i64 44
  store i32 %47, ptr %49, align 4
  %50 = load ptr, ptr %0, align 8
  %51 = load ptr, ptr %50, align 8
  tail call void %51(ptr noundef nonnull %0) #6
  br label %52

52:                                               ; preds = %44, %jAddQuantTable.exit
  %53 = getelementptr inbounds i8, ptr %0, i64 104
  %54 = load ptr, ptr %53, align 8
  %55 = icmp eq ptr %54, null
  br i1 %55, label %56, label %58

56:                                               ; preds = %52
  %57 = tail call ptr @jAlcQTable(ptr noundef nonnull %0) #6
  store ptr %57, ptr %53, align 8
  br label %58

58:                                               ; preds = %56, %52
  br i1 %.not38.i, label %.split.us.i14, label %.split.i7

.split.us.i14:                                    ; preds = %58, %.split.us.i14
  %indvars.iv41.i15 = phi i64 [ %indvars.iv.next42.i18, %.split.us.i14 ], [ 0, %58 ]
  %59 = getelementptr inbounds i32, ptr @jSetLQuality.std_chrominance_quant_tbl, i64 %indvars.iv41.i15
  %60 = load i32, ptr %59, align 4
  %61 = zext i32 %60 to i64
  %62 = mul nsw i64 %61, %21
  %63 = add nsw i64 %62, 50
  %64 = sdiv i64 %63, 100
  %spec.store.select.us.i16 = tail call i64 @llvm.smax.i64(i64 %64, i64 1)
  %spec.store.select4.us.i17 = tail call i64 @llvm.umin.i64(i64 %spec.store.select.us.i16, i64 32767)
  %65 = trunc nuw nsw i64 %spec.store.select4.us.i17 to i16
  %66 = load ptr, ptr %53, align 8
  %67 = getelementptr inbounds [64 x i16], ptr %66, i64 0, i64 %indvars.iv41.i15
  store i16 %65, ptr %67, align 2
  %indvars.iv.next42.i18 = add nuw nsw i64 %indvars.iv41.i15, 1
  %exitcond44.not.i19 = icmp eq i64 %indvars.iv.next42.i18, 64
  br i1 %exitcond44.not.i19, label %jAddQuantTable.exit20, label %.split.us.i14, !llvm.loop !6

.split.i7:                                        ; preds = %58, %.split.i7
  %indvars.iv.i8 = phi i64 [ %indvars.iv.next.i12, %.split.i7 ], [ 0, %58 ]
  %68 = getelementptr inbounds i32, ptr @jSetLQuality.std_chrominance_quant_tbl, i64 %indvars.iv.i8
  %69 = load i32, ptr %68, align 4
  %70 = zext i32 %69 to i64
  %71 = mul nsw i64 %70, %21
  %72 = add nsw i64 %71, 50
  %73 = sdiv i64 %72, 100
  %spec.store.select.i9 = tail call i64 @llvm.smax.i64(i64 %73, i64 1)
  %spec.store.select4.i10 = tail call i64 @llvm.umin.i64(i64 %spec.store.select.i9, i64 32767)
  %74 = icmp sgt i64 %71, 25549
  %75 = trunc nuw nsw i64 %spec.store.select4.i10 to i16
  %spec.select.i11 = select i1 %74, i16 255, i16 %75
  %76 = load ptr, ptr %53, align 8
  %77 = getelementptr inbounds [64 x i16], ptr %76, i64 0, i64 %indvars.iv.i8
  store i16 %spec.select.i11, ptr %77, align 2
  %indvars.iv.next.i12 = add nuw nsw i64 %indvars.iv.i8, 1
  %exitcond.not.i13 = icmp eq i64 %indvars.iv.next.i12, 64
  br i1 %exitcond.not.i13, label %jAddQuantTable.exit20, label %.split.i7, !llvm.loop !6

jAddQuantTable.exit20:                            ; preds = %.split.i7, %.split.us.i14
  %78 = load ptr, ptr %53, align 8
  %79 = getelementptr inbounds i8, ptr %78, i64 128
  store i32 0, ptr %79, align 4
  ret void
}